target datalayout = "e-m:e-p270:32:32-p271:32:32-p272:64:64-i64:64-i128:128-f80:128-n8:16:32:64-S128"
target triple = "x86_64-pc-linux-gnu"

%struct.dictEntry = type { ptr, %union.anon, ptr }
%union.anon = type { ptr }
%struct.dictEntryNoValue = type { ptr, ptr }
%struct.dictDefragFunctions = type { ptr, ptr, ptr }

@.str.1 = private unnamed_addr constant [7 x i8] c"dict.c\00", align 1
@.str.9 = private unnamed_addr constant [18 x i8] c"entryHasValue(de)\00", align 1
@.str.20 = private unnamed_addr constant [39 x i8] c"((uintptr_t)ptr & ENTRY_PTR_MASK) == 0\00", align 1
@.str.21 = private unnamed_addr constant [23 x i8] c"entryIsKey(*bucketref)\00", align 1
@.str.22 = private unnamed_addr constant [18 x i8] c"entryIsNormal(de)\00", align 1

; Function Attrs: inlinehint nounwind uwtable
define internal i32 @entryHasValue(ptr noundef %0) #11 {
  %2 = alloca ptr, align 8
  store ptr %0, ptr %2, align 8, !tbaa !36
  %3 = load ptr, ptr %2, align 8, !tbaa !36
  %4 = call i32 @entryIsNormal(ptr noundef %3)
  ret i32 %4
}

; Function Attrs: inlinehint nounwind uwtable
define internal ptr @decodeMaskedPtr(ptr noundef %0) #11 {
  %2 = alloca ptr, align 8
  store ptr %0, ptr %2, align 8, !tbaa !36
  %3 = load ptr, ptr %2, align 8, !tbaa !36
  %4 = ptrtoint ptr %3 to i64
  %5 = and i64 %4, -8
  %6 = inttoptr i64 %5 to ptr
  ret ptr %6
}

; Function Attrs: nounwind uwtable
define internal ptr @dictGetNextRef(ptr noundef %0) #0 {
  %2 = alloca ptr, align 8
  %3 = alloca ptr, align 8
  store ptr %0, ptr %3, align 8, !tbaa !36
  %4 = load ptr, ptr %3, align 8, !tbaa !36
  %5 = call i32 @entryIsKey(ptr noundef %4)
  %6 = icmp ne i32 %5, 0
  br i1 %6, label %7, label %8

7:                                                ; preds = %1
  store ptr null, ptr %2, align 8
  br label %19

8:                                                ; preds = %1
  %9 = load ptr, ptr %3, align 8, !tbaa !36
  %10 = call i32 @entryIsNoValue(ptr noundef %9)
  %11 = icmp ne i32 %10, 0
  br i1 %11, label %12, label %16

12:                                               ; preds = %8
  %13 = load ptr, ptr %3, align 8, !tbaa !36
  %14 = call ptr @decodeEntryNoValue(ptr noundef %13)
  %15 = getelementptr inbounds nuw %struct.dictEntryNoValue, ptr %14, i32 0, i32 1
  store ptr %15, ptr %2, align 8
  br label %19

16:                                               ; preds = %8
  %17 = load ptr, ptr %3, align 8, !tbaa !36
  %18 = getelementptr inbounds nuw %struct.dictEntry, ptr %17, i32 0, i32 2
  store ptr %18, ptr %2, align 8
  br label %19

19:                                               ; preds = %16, %12, %7
  %20 = load ptr, ptr %2, align 8
  ret ptr %20
}

; Function Attrs: inlinehint nounwind uwtable
define internal i32 @entryIsNormal(ptr noundef %0) #11 {
  %2 = alloca ptr, align 8
  store ptr %0, ptr %2, align 8, !tbaa !36
  %3 = load ptr, ptr %2, align 8, !tbaa !36
  %4 = ptrtoint ptr %3 to i64
  %5 = and i64 %4, 7
  %6 = icmp eq i64 %5, 0
  %7 = zext i1 %6 to i32
  ret i32 %7
}

; Function Attrs: inlinehint nounwind uwtable
define internal ptr @encodeMaskedPtr(ptr noundef %0, i32 noundef %1) #11 {
  %3 = alloca ptr, align 8
  %4 = alloca i32, align 4
  store ptr %0, ptr %3, align 8, !tbaa !10
  store i32 %1, ptr %4, align 4, !tbaa !29
  %5 = load ptr, ptr %3, align 8, !tbaa !10
  %6 = ptrtoint ptr %5 to i64
  %7 = and i64 %6, 7
  %8 = icmp eq i64 %7, 0
  %9 = xor i1 %8, true
  %10 = xor i1 %9, true
  %11 = zext i1 %10 to i32
  %12 = sext i32 %11 to i64
  %13 = call i64 @llvm.expect.i64(i64 %12, i64 1)
  %14 = icmp ne i64 %13, 0
  br i1 %14, label %15, label %16

15:                                               ; preds = %2
  br label %18

16:                                               ; preds = %2
  call void @_serverAssert(ptr noundef @.str.20, ptr noundef @.str.1, i32 noundef 156)
  call void @abort() #17
  unreachable

17:                                               ; No predecessors!
  br label %18

18:                                               ; preds = %17, %15
  %19 = load ptr, ptr %3, align 8, !tbaa !10
  %20 = ptrtoint ptr %19 to i64
  %21 = load i32, ptr %4, align 4, !tbaa !29
  %22 = zext i32 %21 to i64
  %23 = or i64 %20, %22
  %24 = inttoptr i64 %23 to ptr
  ret ptr %24
}

; Function Attrs: inlinehint nounwind uwtable
define internal ptr @decodeEntryNoValue(ptr noundef %0) #11 {
  %2 = alloca ptr, align 8
  store ptr %0, ptr %2, align 8, !tbaa !36
  %3 = load ptr, ptr %2, align 8, !tbaa !36
  %4 = call ptr @decodeMaskedPtr(ptr noundef %3)
  ret ptr %4
}

; Function Attrs: inlinehint nounwind uwtable
define internal i32 @entryIsNoValue(ptr noundef %0) #11 {
  %2 = alloca ptr, align 8
  store ptr %0, ptr %2, align 8, !tbaa !36
  %3 = load ptr, ptr %2, align 8, !tbaa !36
  %4 = ptrtoint ptr %3 to i64
  %5 = and i64 %4, 7
  %6 = icmp eq i64 %5, 4
  %7 = zext i1 %6 to i32
  ret i32 %7
}

; Function Attrs: inlinehint nounwind uwtable
define internal i32 @entryIsKey(ptr noundef %0) #11 {
  %2 = alloca ptr, align 8
  store ptr %0, ptr %2, align 8, !tbaa !36
  %3 = load ptr, ptr %2, align 8, !tbaa !36
  %4 = ptrtoint ptr %3 to i64
  %5 = and i64 %4, 3
  %6 = trunc i64 %5 to i32
  ret i32 %6
}

; Function Attrs: nounwind uwtable
define dso_local ptr @dictGetVal(ptr noundef %0) #0 {
  %2 = alloca ptr, align 8
  store ptr %0, ptr %2, align 8, !tbaa !36
  %3 = load ptr, ptr %2, align 8, !tbaa !36
  %4 = call i32 @entryHasValue(ptr noundef %3)
  %5 = icmp ne i32 %4, 0
  %6 = xor i1 %5, true
  %7 = xor i1 %6, true
  %8 = zext i1 %7 to i32
  %9 = sext i32 %8 to i64
  %10 = call i64 @llvm.expect.i64(i64 %9, i64 1)
  %11 = icmp ne i64 %10, 0
  br i1 %11, label %12, label %13

12:                                               ; preds = %1
  br label %15

13:                                               ; preds = %1
  call void @_serverAssert(ptr noundef @.str.9, ptr noundef @.str.1, i32 noundef 927)
  call void @abort() #17
  unreachable

14:                                               ; No predecessors!
  br label %15

15:                                               ; preds = %14, %12
  %16 = load ptr, ptr %2, align 8, !tbaa !36
  %17 = getelementptr inbounds nuw %struct.dictEntry, ptr %16, i32 0, i32 1
  %18 = load ptr, ptr %17, align 8, !tbaa !25
  ret ptr %18
}

; Function Attrs: nounwind uwtable
define dso_local ptr @dictGetKey(ptr noundef %0) #0 {
  %2 = alloca ptr, align 8
  %3 = alloca ptr, align 8
  store ptr %0, ptr %3, align 8, !tbaa !36
  %4 = load ptr, ptr %3, align 8, !tbaa !36
  %5 = ptrtoint ptr %4 to i64
  %6 = and i64 %5, 1
  %7 = icmp ne i64 %6, 0
  br i1 %7, label %8, label %10

8:                                                ; preds = %1
  %9 = load ptr, ptr %3, align 8, !tbaa !36
  store ptr %9, ptr %2, align 8
  br label %31

10:                                               ; preds = %1
  %11 = load ptr, ptr %3, align 8, !tbaa !36
  %12 = ptrtoint ptr %11 to i64
  %13 = and i64 %12, 2
  %14 = icmp ne i64 %13, 0
  br i1 %14, label %15, label %18

15:                                               ; preds = %10
  %16 = load ptr, ptr %3, align 8, !tbaa !36
  %17 = call ptr @decodeMaskedPtr(ptr noundef %16)
  store ptr %17, ptr %2, align 8
  br label %31

18:                                               ; preds = %10
  %19 = load ptr, ptr %3, align 8, !tbaa !36
  %20 = call i32 @entryIsNoValue(ptr noundef %19)
  %21 = icmp ne i32 %20, 0
  br i1 %21, label %22, label %27

22:                                               ; preds = %18
  %23 = load ptr, ptr %3, align 8, !tbaa !36
  %24 = call ptr @decodeEntryNoValue(ptr noundef %23)
  %25 = getelementptr inbounds nuw %struct.dictEntryNoValue, ptr %24, i32 0, i32 0
  %26 = load ptr, ptr %25, align 8, !tbaa !54
  store ptr %26, ptr %2, align 8
  br label %31

27:                                               ; preds = %18
  %28 = load ptr, ptr %3, align 8, !tbaa !36
  %29 = getelementptr inbounds nuw %struct.dictEntry, ptr %28, i32 0, i32 0
  %30 = load ptr, ptr %29, align 8, !tbaa !51
  store ptr %30, ptr %2, align 8
  br label %31

31:                                               ; preds = %27, %22, %15, %8
  %32 = load ptr, ptr %2, align 8
  ret ptr %32
}

; Function Attrs: nounwind uwtable
define internal void @dictDefragBucket(ptr noundef %0, ptr noundef %1) #0 {
  %3 = alloca ptr, align 8
  %4 = alloca ptr, align 8
  %5 = alloca ptr, align 8
  %6 = alloca ptr, align 8
  %7 = alloca ptr, align 8
  %8 = alloca ptr, align 8
  %9 = alloca ptr, align 8
  %10 = alloca ptr, align 8
  %11 = alloca ptr, align 8
  %12 = alloca ptr, align 8
  %13 = alloca ptr, align 8
  store ptr %0, ptr %3, align 8, !tbaa !30
  store ptr %1, ptr %4, align 8, !tbaa !10
  call void @llvm.lifetime.start.p0(i64 8, ptr %5) #14
  %14 = load ptr, ptr %4, align 8, !tbaa !10
  %15 = getelementptr inbounds nuw %struct.dictDefragFunctions, ptr %14, i32 0, i32 0
  %16 = load ptr, ptr %15, align 8, !tbaa !100
  store ptr %16, ptr %5, align 8, !tbaa !10
  call void @llvm.lifetime.start.p0(i64 8, ptr %6) #14
  %17 = load ptr, ptr %4, align 8, !tbaa !10
  %18 = getelementptr inbounds nuw %struct.dictDefragFunctions, ptr %17, i32 0, i32 1
  %19 = load ptr, ptr %18, align 8, !tbaa !102
  store ptr %19, ptr %6, align 8, !tbaa !10
  call void @llvm.lifetime.start.p0(i64 8, ptr %7) #14
  %20 = load ptr, ptr %4, align 8, !tbaa !10
  %21 = getelementptr inbounds nuw %struct.dictDefragFunctions, ptr %20, i32 0, i32 2
  %22 = load ptr, ptr %21, align 8, !tbaa !103
  store ptr %22, ptr %7, align 8, !tbaa !10
  br label %23

23:                                               ; preds = %145, %2
  %24 = load ptr, ptr %3, align 8, !tbaa !30
  %25 = icmp ne ptr %24, null
  br i1 %25, label %26, label %30

26:                                               ; preds = %23
  %27 = load ptr, ptr %3, align 8, !tbaa !30
  %28 = load ptr, ptr %27, align 8, !tbaa !36
  %29 = icmp ne ptr %28, null
  br label %30

30:                                               ; preds = %26, %23
  %31 = phi i1 [ false, %23 ], [ %29, %26 ]
  br i1 %31, label %32, label %149

32:                                               ; preds = %30
  call void @llvm.lifetime.start.p0(i64 8, ptr %8) #14
  %33 = load ptr, ptr %3, align 8, !tbaa !30
  %34 = load ptr, ptr %33, align 8, !tbaa !36
  store ptr %34, ptr %8, align 8, !tbaa !36
  call void @llvm.lifetime.start.p0(i64 8, ptr %9) #14
  store ptr null, ptr %9, align 8, !tbaa !36
  call void @llvm.lifetime.start.p0(i64 8, ptr %10) #14
  %35 = load ptr, ptr %6, align 8, !tbaa !10
  %36 = icmp ne ptr %35, null
  br i1 %36, label %37, label %42

37:                                               ; preds = %32
  %38 = load ptr, ptr %6, align 8, !tbaa !10
  %39 = load ptr, ptr %8, align 8, !tbaa !36
  %40 = call ptr @dictGetKey(ptr noundef %39)
  %41 = call ptr %38(ptr noundef %40)
  br label %43

42:                                               ; preds = %32
  br label %43

43:                                               ; preds = %42, %37
  %44 = phi ptr [ %41, %37 ], [ null, %42 ]
  store ptr %44, ptr %10, align 8, !tbaa !10
  call void @llvm.lifetime.start.p0(i64 8, ptr %11) #14
  %45 = load ptr, ptr %7, align 8, !tbaa !10
  %46 = icmp ne ptr %45, null
  br i1 %46, label %47, label %52

47:                                               ; preds = %43
  %48 = load ptr, ptr %7, align 8, !tbaa !10
  %49 = load ptr, ptr %8, align 8, !tbaa !36
  %50 = call ptr @dictGetVal(ptr noundef %49)
  %51 = call ptr %48(ptr noundef %50)
  br label %53

52:                                               ; preds = %43
  br label %53

53:                                               ; preds = %52, %47
  %54 = phi ptr [ %51, %47 ], [ null, %52 ]
  store ptr %54, ptr %11, align 8, !tbaa !10
  %55 = load ptr, ptr %8, align 8, !tbaa !36
  %56 = call i32 @entryIsKey(ptr noundef %55)
  %57 = icmp ne i32 %56, 0
  br i1 %57, label %58, label %79

58:                                               ; preds = %53
  %59 = load ptr, ptr %10, align 8, !tbaa !10
  %60 = icmp ne ptr %59, null
  br i1 %60, label %61, label %64

61:                                               ; preds = %58
  %62 = load ptr, ptr %10, align 8, !tbaa !10
  %63 = load ptr, ptr %3, align 8, !tbaa !30
  store ptr %62, ptr %63, align 8, !tbaa !36
  br label %64

64:                                               ; preds = %61, %58
  %65 = load ptr, ptr %3, align 8, !tbaa !30
  %66 = load ptr, ptr %65, align 8, !tbaa !36
  %67 = call i32 @entryIsKey(ptr noundef %66)
  %68 = icmp ne i32 %67, 0
  %69 = xor i1 %68, true
  %70 = xor i1 %69, true
  %71 = zext i1 %70 to i32
  %72 = sext i32 %71 to i64
  %73 = call i64 @llvm.expect.i64(i64 %72, i64 1)
  %74 = icmp ne i64 %73, 0
  br i1 %74, label %75, label %76

75:                                               ; preds = %64
  br label %78

76:                                               ; preds = %64
  call void @_serverAssert(ptr noundef @.str.21, ptr noundef @.str.1, i32 noundef 1268)
  call void @abort() #17
  unreachable

77:                                               ; No predecessors!
  br label %78

78:                                               ; preds = %77, %75
  br label %139

79:                                               ; preds = %53
  %80 = load ptr, ptr %8, align 8, !tbaa !36
  %81 = call i32 @entryIsNoValue(ptr noundef %80)
  %82 = icmp ne i32 %81, 0
  br i1 %82, label %83, label %102

83:                                               ; preds = %79
  call void @llvm.lifetime.start.p0(i64 8, ptr %12) #14
  %84 = load ptr, ptr %8, align 8, !tbaa !36
  %85 = call ptr @decodeEntryNoValue(ptr noundef %84)
  store ptr %85, ptr %12, align 8, !tbaa !10
  call void @llvm.lifetime.start.p0(i64 8, ptr %13) #14
  %86 = load ptr, ptr %5, align 8, !tbaa !10
  %87 = load ptr, ptr %12, align 8, !tbaa !10
  %88 = call ptr %86(ptr noundef %87)
  store ptr %88, ptr %13, align 8, !tbaa !10
  %89 = icmp ne ptr %88, null
  br i1 %89, label %90, label %94

90:                                               ; preds = %83
  %91 = load ptr, ptr %13, align 8, !tbaa !10
  %92 = call ptr @encodeMaskedPtr(ptr noundef %91, i32 noundef 4)
  store ptr %92, ptr %9, align 8, !tbaa !36
  %93 = load ptr, ptr %13, align 8, !tbaa !10
  store ptr %93, ptr %12, align 8, !tbaa !10
  br label %94

94:                                               ; preds = %90, %83
  %95 = load ptr, ptr %10, align 8, !tbaa !10
  %96 = icmp ne ptr %95, null
  br i1 %96, label %97, label %101

97:                                               ; preds = %94
  %98 = load ptr, ptr %10, align 8, !tbaa !10
  %99 = load ptr, ptr %12, align 8, !tbaa !10
  %100 = getelementptr inbounds nuw %struct.dictEntryNoValue, ptr %99, i32 0, i32 0
  store ptr %98, ptr %100, align 8, !tbaa !54
  br label %101

101:                                              ; preds = %97, %94
  call void @llvm.lifetime.end.p0(i64 8, ptr %13) #14
  call void @llvm.lifetime.end.p0(i64 8, ptr %12) #14
  br label %138

102:                                              ; preds = %79
  %103 = load ptr, ptr %8, align 8, !tbaa !36
  %104 = call i32 @entryIsNormal(ptr noundef %103)
  %105 = icmp ne i32 %104, 0
  %106 = xor i1 %105, true
  %107 = xor i1 %106, true
  %108 = zext i1 %107 to i32
  %109 = sext i32 %108 to i64
  %110 = call i64 @llvm.expect.i64(i64 %109, i64 1)
  %111 = icmp ne i64 %110, 0
  br i1 %111, label %112, label %113

112:                                              ; preds = %102
  br label %115

113:                                              ; preds = %102
  call void @_serverAssert(ptr noundef @.str.22, ptr noundef @.str.1, i32 noundef 1277)
  call void @abort() #17
  unreachable

114:                                              ; No predecessors!
  br label %115

115:                                              ; preds = %114, %112
  %116 = load ptr, ptr %5, align 8, !tbaa !10
  %117 = load ptr, ptr %8, align 8, !tbaa !36
  %118 = call ptr %116(ptr noundef %117)
  store ptr %118, ptr %9, align 8, !tbaa !36
  %119 = load ptr, ptr %9, align 8, !tbaa !36
  %120 = icmp ne ptr %119, null
  br i1 %120, label %121, label %123

121:                                              ; preds = %115
  %122 = load ptr, ptr %9, align 8, !tbaa !36
  store ptr %122, ptr %8, align 8, !tbaa !36
  br label %123

123:                                              ; preds = %121, %115
  %124 = load ptr, ptr %10, align 8, !tbaa !10
  %125 = icmp ne ptr %124, null
  br i1 %125, label %126, label %130

126:                                              ; preds = %123
  %127 = load ptr, ptr %10, align 8, !tbaa !10
  %128 = load ptr, ptr %8, align 8, !tbaa !36
  %129 = getelementptr inbounds nuw %struct.dictEntry, ptr %128, i32 0, i32 0
  store ptr %127, ptr %129, align 8, !tbaa !51
  br label %130

130:                                              ; preds = %126, %123
  %131 = load ptr, ptr %11, align 8, !tbaa !10
  %132 = icmp ne ptr %131, null
  br i1 %132, label %133, label %137

133:                                              ; preds = %130
  %134 = load ptr, ptr %11, align 8, !tbaa !10
  %135 = load ptr, ptr %8, align 8, !tbaa !36
  %136 = getelementptr inbounds nuw %struct.dictEntry, ptr %135, i32 0, i32 1
  store ptr %134, ptr %136, align 8, !tbaa !25
  br label %137

137:                                              ; preds = %133, %130
  br label %138

138:                                              ; preds = %137, %101
  br label %139

139:                                              ; preds = %138, %78
  %140 = load ptr, ptr %9, align 8, !tbaa !36
  %141 = icmp ne ptr %140, null
  br i1 %141, label %142, label %145

142:                                              ; preds = %139
  %143 = load ptr, ptr %9, align 8, !tbaa !36
  %144 = load ptr, ptr %3, align 8, !tbaa !30
  store ptr %143, ptr %144, align 8, !tbaa !36
  br label %145

145:                                              ; preds = %142, %139
  %146 = load ptr, ptr %3, align 8, !tbaa !30
  %147 = load ptr, ptr %146, align 8, !tbaa !36
  %148 = call ptr @dictGetNextRef(ptr noundef %147)
  store ptr %148, ptr %3, align 8, !tbaa !30
  call void @llvm.lifetime.end.p0(i64 8, ptr %11) #14
  call void @llvm.lifetime.end.p0(i64 8, ptr %10) #14
  call void @llvm.lifetime.end.p0(i64 8, ptr %9) #14
  call void @llvm.lifetime.end.p0(i64 8, ptr %8) #14
  br label %23, !llvm.loop !104

149:                                              ; preds = %30
  call void @llvm.lifetime.end.p0(i64 8, ptr %7) #14
  call void @llvm.lifetime.end.p0(i64 8, ptr %6) #14
  call void @llvm.lifetime.end.p0(i64 8, ptr %5) #14
  ret void
}