; Function Attrs: nounwind uwtable
define internal fastcc void @dictDefragBucket(ptr noundef captures(address_is_null) %0, ptr noundef nonnull readonly captures(none) %1) unnamed_addr #3 {
  %3 = load ptr, ptr %1, align 8, !tbaa !89
  %4 = getelementptr inbounds nuw i8, ptr %1, i64 8
  %5 = load ptr, ptr %4, align 8, !tbaa !91
  %6 = getelementptr inbounds nuw i8, ptr %1, i64 16
  %7 = load ptr, ptr %6, align 8, !tbaa !92
  %.not71 = icmp eq ptr %0, null
  br i1 %.not71, label %.critedge, label %.lr.ph

.lr.ph:                                           ; preds = %2
  %.not53 = icmp eq ptr %5, null
  %.not54 = icmp eq ptr %7, null
  %8 = load ptr, ptr %0, align 8, !tbaa !31
  %.not5279 = icmp eq ptr %8, null
  br i1 %.not5279, label %.critedge, label %.lr.ph81

.lr.ph81:                                         ; preds = %.lr.ph, %dictGetNextRef.exit
  %9 = phi ptr [ %75, %dictGetNextRef.exit ], [ %8, %.lr.ph ]
  %.07280 = phi ptr [ %.0.i68, %dictGetNextRef.exit ], [ %0, %.lr.ph ]
  br i1 %.not53, label %27, label %10

10:                                               ; preds = %.lr.ph81
  %11 = ptrtoint ptr %9 to i64
  %12 = and i64 %11, 1
  %.not.i = icmp eq i64 %12, 0
  br i1 %.not.i, label %13, label %dictGetKey.exit

13:                                               ; preds = %10
  %14 = and i64 %11, 2
  %.not8.i = icmp eq i64 %14, 0
  br i1 %.not8.i, label %18, label %15

15:                                               ; preds = %13
  %16 = and i64 %11, -8
  %17 = inttoptr i64 %16 to ptr
  br label %dictGetKey.exit

18:                                               ; preds = %13
  %19 = and i64 %11, 4
  %.not9.i = icmp eq i64 %19, 0
  br i1 %.not9.i, label %24, label %20

20:                                               ; preds = %18
  %21 = and i64 %11, -8
  %22 = inttoptr i64 %21 to ptr
  %23 = load ptr, ptr %22, align 8, !tbaa !39
  br label %dictGetKey.exit

24:                                               ; preds = %18
  %25 = load ptr, ptr %9, align 8, !tbaa !40
  br label %dictGetKey.exit

dictGetKey.exit:                                  ; preds = %10, %15, %20, %24
  %.0.i = phi ptr [ %17, %15 ], [ %23, %20 ], [ %25, %24 ], [ %9, %10 ]
  %26 = tail call ptr %5(ptr noundef %.0.i) #25
  br label %27

27:                                               ; preds = %.lr.ph81, %dictGetKey.exit
  %28 = phi ptr [ %26, %dictGetKey.exit ], [ null, %.lr.ph81 ]
  %.pre76 = ptrtoint ptr %9 to i64
  br i1 %.not54, label %._crit_edge75, label %29

29:                                               ; preds = %27
  %30 = and i64 %.pre76, 7
  %.not.i66 = icmp eq i64 %30, 0
  br i1 %.not.i66, label %dictGetVal.exit, label %31, !prof !25

31:                                               ; preds = %29
  tail call void @_serverAssert(ptr noundef nonnull @.str.9, ptr noundef nonnull @.str.1, i32 noundef 927) #25
  tail call void @abort() #27
  unreachable

dictGetVal.exit:                                  ; preds = %29
  %32 = getelementptr inbounds nuw i8, ptr %9, i64 8
  %33 = load ptr, ptr %32, align 8, !tbaa !13
  %34 = tail call ptr %7(ptr noundef %33) #25
  br label %._crit_edge75

._crit_edge75:                                    ; preds = %27, %dictGetVal.exit
  %35 = phi ptr [ %34, %dictGetVal.exit ], [ null, %27 ]
  %36 = and i64 %.pre76, 3
  %.not55 = icmp eq i64 %36, 0
  br i1 %.not55, label %44, label %37

37:                                               ; preds = %._crit_edge75
  %.not63 = icmp eq ptr %28, null
  br i1 %.not63, label %._crit_edge, label %38

._crit_edge:                                      ; preds = %37
  %.pre = load ptr, ptr %.07280, align 8, !tbaa !31
  br label %39

38:                                               ; preds = %37
  store ptr %28, ptr %.07280, align 8, !tbaa !31
  br label %39

39:                                               ; preds = %._crit_edge, %38
  %40 = phi ptr [ %.pre, %._crit_edge ], [ %28, %38 ]
  %41 = ptrtoint ptr %40 to i64
  %42 = and i64 %41, 3
  %.not64 = icmp eq i64 %42, 0
  br i1 %.not64, label %43, label %.thread, !prof !43

43:                                               ; preds = %39
  tail call void @_serverAssert(ptr noundef nonnull @.str.21, ptr noundef nonnull @.str.1, i32 noundef 1268) #25
  tail call void @abort() #27
  unreachable

44:                                               ; preds = %._crit_edge75
  %45 = and i64 %.pre76, 4
  %.not56 = icmp eq i64 %45, 0
  br i1 %.not56, label %59, label %46

46:                                               ; preds = %44
  %47 = and i64 %.pre76, -8
  %48 = inttoptr i64 %47 to ptr
  %49 = tail call ptr %3(ptr noundef %48) #25
  %.not61 = icmp eq ptr %49, null
  br i1 %.not61, label %57, label %50

50:                                               ; preds = %46
  %51 = ptrtoint ptr %49 to i64
  %52 = and i64 %51, 7
  %53 = icmp eq i64 %52, 0
  br i1 %53, label %encodeMaskedPtr.exit, label %54, !prof !25

54:                                               ; preds = %50
  tail call void @_serverAssert(ptr noundef nonnull @.str.20, ptr noundef nonnull @.str.1, i32 noundef 156) #25
  tail call void @abort() #27
  unreachable

encodeMaskedPtr.exit:                             ; preds = %50
  %55 = or disjoint i64 %51, 4
  %56 = inttoptr i64 %55 to ptr
  br label %57

57:                                               ; preds = %encodeMaskedPtr.exit, %46
  %.1 = phi ptr [ %56, %encodeMaskedPtr.exit ], [ null, %46 ]
  %.041 = phi ptr [ %49, %encodeMaskedPtr.exit ], [ %48, %46 ]
  %.not62 = icmp eq ptr %28, null
  br i1 %.not62, label %65, label %58

58:                                               ; preds = %57
  store ptr %28, ptr %.041, align 8, !tbaa !39
  br label %65

59:                                               ; preds = %44
  %60 = tail call ptr %3(ptr noundef nonnull %9) #25
  %.not58 = icmp eq ptr %60, null
  %spec.select = select i1 %.not58, ptr %9, ptr %60
  %.not59 = icmp eq ptr %28, null
  br i1 %.not59, label %62, label %61

61:                                               ; preds = %59
  store ptr %28, ptr %spec.select, align 8, !tbaa !40
  br label %62

62:                                               ; preds = %61, %59
  %.not60 = icmp eq ptr %35, null
  br i1 %.not60, label %65, label %63

63:                                               ; preds = %62
  %64 = getelementptr inbounds nuw i8, ptr %spec.select, i64 8
  store ptr %35, ptr %64, align 8, !tbaa !13
  br label %65

65:                                               ; preds = %57, %58, %63, %62
  %.043 = phi ptr [ %60, %63 ], [ %60, %62 ], [ %.1, %58 ], [ %.1, %57 ]
  %.not65 = icmp eq ptr %.043, null
  br i1 %.not65, label %..thread_crit_edge, label %66

..thread_crit_edge:                               ; preds = %65
  %.pre74 = load ptr, ptr %.07280, align 8, !tbaa !31
  br label %.thread

66:                                               ; preds = %65
  store ptr %.043, ptr %.07280, align 8, !tbaa !31
  br label %.thread

.thread:                                          ; preds = %..thread_crit_edge, %39, %66
  %67 = phi ptr [ %.pre74, %..thread_crit_edge ], [ %40, %39 ], [ %.043, %66 ]
  %68 = ptrtoint ptr %67 to i64
  %69 = and i64 %68, 3
  %.not.i67 = icmp eq i64 %69, 0
  br i1 %.not.i67, label %dictGetNextRef.exit, label %.critedge

dictGetNextRef.exit:                              ; preds = %.thread
  %70 = and i64 %68, 4
  %.not5.i = icmp eq i64 %70, 0
  %71 = and i64 %68, -8
  %72 = inttoptr i64 %71 to ptr
  %73 = getelementptr inbounds nuw i8, ptr %72, i64 8
  %74 = getelementptr inbounds nuw i8, ptr %67, i64 16
  %.0.i68 = select i1 %.not5.i, ptr %74, ptr %73
  %75 = load ptr, ptr %.0.i68, align 8, !tbaa !31
  %.not52 = icmp eq ptr %75, null
  br i1 %.not52, label %.critedge, label %.lr.ph81, !llvm.loop !93

.critedge:                                        ; preds = %dictGetNextRef.exit, %.thread, %.lr.ph, %2
  ret void
}